target datalayout = "e-m:e-p270:32:32-p271:32:32-p272:64:64-i64:64-i128:128-f80:128-n8:16:32:64-S128"
target triple = "x86_64-pc-linux-gnu"

%struct.SDL_AtomicInt = type { i32 }
%struct.SDL_MouseWheelEvent = type { i32, i32, i64, i32, i32, float, float, i32, float, float, i32, i32 }
%struct.anon = type { ptr, i8, %struct.SDL_AtomicInt, i32, ptr, ptr, ptr }
%struct.SDL_EventEntry = type { %union.SDL_Event, ptr, ptr, ptr }
%union.SDL_Event = type { %struct.SDL_MouseWheelEvent, [72 x i8] }

@SDL_EventQ = internal global { ptr, i8, [3 x i8], %struct.SDL_AtomicInt, i32, [4 x i8], ptr, ptr, ptr } zeroinitializer, align 8

; Function Attrs: nounwind uwtable
define hidden void @SDL_FlushEvents_REAL(i32 noundef %0, i32 noundef %1) #0 {
  %3 = alloca i32, align 4
  %4 = alloca i32, align 4
  %5 = alloca ptr, align 8
  %6 = alloca ptr, align 8
  %7 = alloca i32, align 4
  %8 = alloca i32, align 4
  store i32 %0, ptr %3, align 4
  store i32 %1, ptr %4, align 4
  call void @llvm.lifetime.start.p0(i64 8, ptr %5) #5
  call void @llvm.lifetime.start.p0(i64 8, ptr %6) #5
  call void @llvm.lifetime.start.p0(i64 4, ptr %7) #5
  %9 = load ptr, ptr @SDL_EventQ, align 8
  call void @SDL_LockMutex_REAL(ptr noundef %9)
  %10 = load i8, ptr getelementptr inbounds nuw (%struct.anon, ptr @SDL_EventQ, i32 0, i32 1), align 8, !range !3, !noundef !4
  %11 = trunc i8 %10 to i1
  br i1 %11, label %14, label %12

12:                                               ; preds = %2
  %13 = load ptr, ptr @SDL_EventQ, align 8
  call void @SDL_UnlockMutex_REAL(ptr noundef %13)
  store i32 1, ptr %8, align 4
  br label %40

14:                                               ; preds = %2
  %15 = load ptr, ptr getelementptr inbounds nuw (%struct.anon, ptr @SDL_EventQ, i32 0, i32 4), align 8
  store ptr %15, ptr %5, align 8
  br label %16

16:                                               ; preds = %36, %14
  %17 = load ptr, ptr %5, align 8
  %18 = icmp ne ptr %17, null
  br i1 %18, label %19, label %38

19:                                               ; preds = %16
  %20 = load ptr, ptr %5, align 8
  %21 = getelementptr inbounds nuw %struct.SDL_EventEntry, ptr %20, i32 0, i32 3
  %22 = load ptr, ptr %21, align 8
  store ptr %22, ptr %6, align 8
  %23 = load ptr, ptr %5, align 8
  %24 = getelementptr inbounds nuw %struct.SDL_EventEntry, ptr %23, i32 0, i32 0
  %25 = load i32, ptr %24, align 8
  store i32 %25, ptr %7, align 4
  %26 = load i32, ptr %3, align 4
  %27 = load i32, ptr %7, align 4
  %28 = icmp ule i32 %26, %27
  br i1 %28, label %29, label %35

29:                                               ; preds = %19
  %30 = load i32, ptr %7, align 4
  %31 = load i32, ptr %4, align 4
  %32 = icmp ule i32 %30, %31
  br i1 %32, label %33, label %35

33:                                               ; preds = %29
  %34 = load ptr, ptr %5, align 8
  call void @SDL_CutEvent(ptr noundef %34)
  br label %35

35:                                               ; preds = %33, %29, %19
  br label %36

36:                                               ; preds = %35
  %37 = load ptr, ptr %6, align 8
  store ptr %37, ptr %5, align 8
  br label %16, !llvm.loop !15

38:                                               ; preds = %16
  %39 = load ptr, ptr @SDL_EventQ, align 8
  call void @SDL_UnlockMutex_REAL(ptr noundef %39)
  store i32 0, ptr %8, align 4
  br label %40

40:                                               ; preds = %38, %12
  call void @llvm.lifetime.end.p0(i64 4, ptr %7) #5
  call void @llvm.lifetime.end.p0(i64 8, ptr %6) #5
  call void @llvm.lifetime.end.p0(i64 8, ptr %5) #5
  %41 = load i32, ptr %8, align 4
  switch i32 %41, label %43 [
    i32 0, label %42
    i32 1, label %42
  ]

42:                                               ; preds = %40, %40
  ret void

43:                                               ; preds = %40
  unreachable
}

; Function Attrs: nounwind uwtable
define hidden void @SDL_FlushEvent_REAL(i32 noundef %0) #0 {
  %2 = alloca i32, align 4
  store i32 %0, ptr %2, align 4
  %3 = load i32, ptr %2, align 4
  %4 = load i32, ptr %2, align 4
  call void @SDL_FlushEvents_REAL(i32 noundef %3, i32 noundef %4)
  ret void
}