; Function Attrs: nounwind uwtable
define hidden void @SDL_FlushEvent_REAL(i32 noundef %0) local_unnamed_addr #0 {
  %2 = load ptr, ptr @SDL_EventQ, align 8
  tail call void @SDL_LockMutex_REAL(ptr noundef %2) #8
  %3 = load i8, ptr getelementptr inbounds nuw (i8, ptr @SDL_EventQ, i64 8), align 8, !range !6, !noundef !7
  %4 = trunc nuw i8 %3 to i1
  %5 = load ptr, ptr getelementptr inbounds nuw (i8, ptr @SDL_EventQ, i64 24), align 8
  %.not11.i = icmp ne ptr %5, null
  %or.cond14.not.i = select i1 %4, i1 %.not11.i, i1 false
  br i1 %or.cond14.not.i, label %.lr.ph.i, label %SDL_FlushEvents_REAL.exit

.lr.ph.i:                                         ; preds = %1, %10
  %.012.i = phi ptr [ %7, %10 ], [ %5, %1 ]
  %6 = getelementptr inbounds nuw i8, ptr %.012.i, i64 144
  %7 = load ptr, ptr %6, align 8
  %8 = load i32, ptr %.012.i, align 8
  %or.cond.i.not = icmp eq i32 %8, %0
  br i1 %or.cond.i.not, label %9, label %10

9:                                                ; preds = %.lr.ph.i
  tail call fastcc void @SDL_CutEvent(ptr noundef %.012.i)
  br label %10

10:                                               ; preds = %9, %.lr.ph.i
  %.not.i = icmp eq ptr %7, null
  br i1 %.not.i, label %SDL_FlushEvents_REAL.exit, label %.lr.ph.i, !llvm.loop !15

SDL_FlushEvents_REAL.exit:                        ; preds = %10, %1
  %11 = load ptr, ptr @SDL_EventQ, align 8
  tail call void @SDL_UnlockMutex_REAL(ptr noundef %11) #8
  ret void
}